target datalayout = "e-m:e-p270:32:32-p271:32:32-p272:64:64-i64:64-i128:128-f80:128-n8:16:32:64-S128"
target triple = "x86_64-pc-linux-gnu"

%struct.UCharIterator = type { ptr, i32, i32, i32, i32, i32, ptr, ptr, ptr, ptr, ptr, ptr, ptr, ptr, ptr, ptr }
%"class.icu_77::StringPiece" = type <{ ptr, i32, [4 x i8] }>

; Function Attrs: mustprogress nounwind uwtable
define linkonce_odr noundef i32 @_ZNK6icu_7711StringPiece6lengthEv(ptr noundef nonnull align 8 dereferenceable(12) %0) #1 comdat align 2 {
  %2 = alloca ptr, align 8
  store ptr %0, ptr %2, align 8, !tbaa !58
  %3 = load ptr, ptr %2, align 8
  %4 = getelementptr inbounds nuw %"class.icu_77::StringPiece", ptr %3, i32 0, i32 1
  %5 = load i32, ptr %4, align 8, !tbaa !62
  ret i32 %5
}

; Function Attrs: mustprogress nounwind uwtable
define linkonce_odr noundef ptr @_ZNK6icu_7711StringPiece4dataEv(ptr noundef nonnull align 8 dereferenceable(12) %0) #1 comdat align 2 {
  %2 = alloca ptr, align 8
  store ptr %0, ptr %2, align 8, !tbaa !58
  %3 = load ptr, ptr %2, align 8
  %4 = getelementptr inbounds nuw %"class.icu_77::StringPiece", ptr %3, i32 0, i32 0
  %5 = load ptr, ptr %4, align 8, !tbaa !60
  ret ptr %5
}

; Function Attrs: inlinehint mustprogress nounwind uwtable
define internal noundef signext i8 @_ZL9U_FAILURE10UErrorCode(i32 noundef %0) #6 {
  %2 = alloca i32, align 4
  store i32 %0, ptr %2, align 4, !tbaa !25
  %3 = load i32, ptr %2, align 4, !tbaa !25
  %4 = icmp sgt i32 %3, 0
  %5 = zext i1 %4 to i8
  ret i8 %5
}

; Function Attrs: mustprogress uwtable
define noundef i32 @_ZNK6icu_778Collator11compareUTF8ERKNS_11StringPieceES3_R10UErrorCode(ptr noundef nonnull align 8 dereferenceable(8) %0, ptr noundef nonnull align 8 dereferenceable(12) %1, ptr noundef nonnull align 8 dereferenceable(12) %2, ptr noundef nonnull align 4 dereferenceable(4) %3) unnamed_addr #3 align 2 {
  %5 = alloca i32, align 4
  %6 = alloca ptr, align 8
  %7 = alloca ptr, align 8
  %8 = alloca ptr, align 8
  %9 = alloca ptr, align 8
  %10 = alloca %struct.UCharIterator, align 8
  %11 = alloca %struct.UCharIterator, align 8
  store ptr %0, ptr %6, align 8, !tbaa !27
  store ptr %1, ptr %7, align 8, !tbaa !58
  store ptr %2, ptr %8, align 8, !tbaa !58
  store ptr %3, ptr %9, align 8, !tbaa !18
  %12 = load ptr, ptr %6, align 8
  %13 = load ptr, ptr %9, align 8, !tbaa !18
  %14 = load i32, ptr %13, align 4, !tbaa !25
  %15 = call noundef signext i8 @_ZL9U_FAILURE10UErrorCode(i32 noundef %14)
  %16 = icmp ne i8 %15, 0
  br i1 %16, label %17, label %18

17:                                               ; preds = %4
  store i32 0, ptr %5, align 4
  br label %32

18:                                               ; preds = %4
  call void @llvm.lifetime.start.p0(i64 112, ptr %10) #14
  call void @llvm.lifetime.start.p0(i64 112, ptr %11) #14
  %19 = load ptr, ptr %7, align 8, !tbaa !58
  %20 = call noundef ptr @_ZNK6icu_7711StringPiece4dataEv(ptr noundef nonnull align 8 dereferenceable(12) %19)
  %21 = load ptr, ptr %7, align 8, !tbaa !58
  %22 = call noundef i32 @_ZNK6icu_7711StringPiece6lengthEv(ptr noundef nonnull align 8 dereferenceable(12) %21)
  call void @uiter_setUTF8_77(ptr noundef %10, ptr noundef %20, i32 noundef %22)
  %23 = load ptr, ptr %8, align 8, !tbaa !58
  %24 = call noundef ptr @_ZNK6icu_7711StringPiece4dataEv(ptr noundef nonnull align 8 dereferenceable(12) %23)
  %25 = load ptr, ptr %8, align 8, !tbaa !58
  %26 = call noundef i32 @_ZNK6icu_7711StringPiece6lengthEv(ptr noundef nonnull align 8 dereferenceable(12) %25)
  call void @uiter_setUTF8_77(ptr noundef %11, ptr noundef %24, i32 noundef %26)
  %27 = load ptr, ptr %9, align 8, !tbaa !18
  %28 = load ptr, ptr %12, align 8, !tbaa !19
  %29 = getelementptr inbounds ptr, ptr %28, i64 12
  %30 = load ptr, ptr %29, align 8
  %31 = call noundef i32 %30(ptr noundef nonnull align 8 dereferenceable(8) %12, ptr noundef nonnull align 8 dereferenceable(112) %10, ptr noundef nonnull align 8 dereferenceable(112) %11, ptr noundef nonnull align 4 dereferenceable(4) %27)
  store i32 %31, ptr %5, align 4
  call void @llvm.lifetime.end.p0(i64 112, ptr %11) #14
  call void @llvm.lifetime.end.p0(i64 112, ptr %10) #14
  br label %32

32:                                               ; preds = %18, %17
  %33 = load i32, ptr %5, align 4
  ret i32 %33
}