; Function Attrs: mustprogress uwtable
define noundef i32 @_ZNK6icu_778Collator11compareUTF8ERKNS_11StringPieceES3_R10UErrorCode(ptr noundef nonnull align 8 dereferenceable(8) %0, ptr noundef nonnull readonly align 8 captures(none) dereferenceable(12) %1, ptr noundef nonnull readonly align 8 captures(none) dereferenceable(12) %2, ptr noundef nonnull align 4 dereferenceable(4) %3) unnamed_addr #5 align 2 {
  %5 = alloca %struct.UCharIterator, align 8
  %6 = alloca %struct.UCharIterator, align 8
  %7 = load i32, ptr %3, align 4, !tbaa !6
  %8 = icmp slt i32 %7, 1
  br i1 %8, label %9, label %20

9:                                                ; preds = %4
  call void @llvm.lifetime.start.p0(i64 112, ptr nonnull %5) #16
  call void @llvm.lifetime.start.p0(i64 112, ptr nonnull %6) #16
  %10 = load ptr, ptr %1, align 8, !tbaa !34
  %11 = getelementptr inbounds nuw i8, ptr %1, i64 8
  %12 = load i32, ptr %11, align 8, !tbaa !36
  call void @uiter_setUTF8_77(ptr noundef nonnull %5, ptr noundef %10, i32 noundef %12)
  %13 = load ptr, ptr %2, align 8, !tbaa !34
  %14 = getelementptr inbounds nuw i8, ptr %2, i64 8
  %15 = load i32, ptr %14, align 8, !tbaa !36
  call void @uiter_setUTF8_77(ptr noundef nonnull %6, ptr noundef %13, i32 noundef %15)
  %16 = load ptr, ptr %0, align 8, !tbaa !3
  %17 = getelementptr inbounds nuw i8, ptr %16, i64 96
  %18 = load ptr, ptr %17, align 8
  %19 = call noundef i32 %18(ptr noundef nonnull align 8 dereferenceable(8) %0, ptr noundef nonnull align 8 dereferenceable(112) %5, ptr noundef nonnull align 8 dereferenceable(112) %6, ptr noundef nonnull align 4 dereferenceable(4) %3)
  call void @llvm.lifetime.end.p0(i64 112, ptr nonnull %6) #16
  call void @llvm.lifetime.end.p0(i64 112, ptr nonnull %5) #16
  br label %20

20:                                               ; preds = %4, %9
  %.0 = phi i32 [ %19, %9 ], [ 0, %4 ]
  ret i32 %.0
}